target datalayout = "e-m:e-p270:32:32-p271:32:32-p272:64:64-i64:64-i128:128-f80:128-n8:16:32:64-S128"
target triple = "x86_64-pc-linux-gnu"

%struct.BEValue = type { i8, i32, ptr, ptr, ptr }
%struct.GenContext_ = type { i8, ptr, ptr, ptr, ptr, ptr, ptr, ptr, ptr, ptr, ptr, ptr, ptr, ptr, ptr, ptr, ptr, ptr, ptr, ptr, ptr, ptr, ptr, ptr, ptr, ptr, ptr, ptr, ptr, ptr, ptr, ptr, ptr, %struct.anon.85, i32, i32, %struct.DebugContext, ptr, ptr, ptr, %struct.BEValue, i8, %union.SourceSpan, ptr, ptr, ptr, ptr }
%struct.anon.85 = type { ptr, ptr, ptr }
%struct.DebugContext = type { i16, ptr, ptr, %struct.DebugFile_, ptr, ptr, ptr, ptr }
%struct.DebugFile_ = type { i16, ptr }
%union.SourceSpan = type { i64 }

@.str.65 = private unnamed_addr constant [7 x i8] c"ptradd\00", align 1
@.str.66 = private unnamed_addr constant [10 x i8] c"ptroffset\00", align 1

; Function Attrs: nounwind uwtable
define dso_local ptr @llvm_emit_ptradd_inbounds_raw(ptr noundef %0, ptr noundef %1, ptr noundef %2, i64 noundef %3) #0 {
  %5 = alloca ptr, align 8
  %6 = alloca ptr, align 8
  %7 = alloca ptr, align 8
  %8 = alloca ptr, align 8
  %9 = alloca i64, align 8
  store ptr %0, ptr %6, align 8
  store ptr %1, ptr %7, align 8
  store ptr %2, ptr %8, align 8
  store i64 %3, ptr %9, align 8
  %10 = load ptr, ptr %8, align 8
  %11 = call i32 @LLVMIsConstant(ptr noundef %10)
  %12 = icmp ne i32 %11, 0
  br i1 %12, label %13, label %19

13:                                               ; preds = %4
  %14 = load ptr, ptr %8, align 8
  %15 = call i32 @LLVMIsNull(ptr noundef %14)
  %16 = icmp ne i32 %15, 0
  br i1 %16, label %17, label %19

17:                                               ; preds = %13
  %18 = load ptr, ptr %7, align 8
  store ptr %18, ptr %5, align 8
  br label %43

19:                                               ; preds = %13, %4
  %20 = load i64, ptr %9, align 8
  %21 = icmp eq i64 %20, 1
  br i1 %21, label %22, label %31

22:                                               ; preds = %19
  %23 = load ptr, ptr %6, align 8
  %24 = getelementptr inbounds %struct.GenContext_, ptr %23, i32 0, i32 8
  %25 = load ptr, ptr %24, align 8
  %26 = load ptr, ptr %6, align 8
  %27 = getelementptr inbounds %struct.GenContext_, ptr %26, i32 0, i32 21
  %28 = load ptr, ptr %27, align 8
  %29 = load ptr, ptr %7, align 8
  %30 = call ptr @LLVMBuildInBoundsGEP2(ptr noundef %25, ptr noundef %28, ptr noundef %29, ptr noundef %8, i32 noundef 1, ptr noundef @.str.65)
  store ptr %30, ptr %5, align 8
  br label %43

31:                                               ; preds = %19
  %32 = load ptr, ptr %6, align 8
  %33 = getelementptr inbounds %struct.GenContext_, ptr %32, i32 0, i32 8
  %34 = load ptr, ptr %33, align 8
  %35 = load ptr, ptr %6, align 8
  %36 = getelementptr inbounds %struct.GenContext_, ptr %35, i32 0, i32 21
  %37 = load ptr, ptr %36, align 8
  %38 = load i64, ptr %9, align 8
  %39 = trunc i64 %38 to i32
  %40 = call ptr @LLVMArrayType(ptr noundef %37, i32 noundef %39)
  %41 = load ptr, ptr %7, align 8
  %42 = call ptr @LLVMBuildInBoundsGEP2(ptr noundef %34, ptr noundef %40, ptr noundef %41, ptr noundef %8, i32 noundef 1, ptr noundef @.str.66)
  store ptr %42, ptr %5, align 8
  br label %43

43:                                               ; preds = %31, %22, %17
  %44 = load ptr, ptr %5, align 8
  ret ptr %44
}

; Function Attrs: nounwind uwtable
define dso_local ptr @llvm_emit_const_ptradd_inbounds_raw(ptr noundef %0, ptr noundef %1, i64 noundef %2) #0 {
  %4 = alloca ptr, align 8
  %5 = alloca ptr, align 8
  %6 = alloca i64, align 8
  store ptr %0, ptr %4, align 8
  store ptr %1, ptr %5, align 8
  store i64 %2, ptr %6, align 8
  %7 = load ptr, ptr %4, align 8
  %8 = load ptr, ptr %5, align 8
  %9 = load ptr, ptr %4, align 8
  %10 = getelementptr inbounds %struct.GenContext_, ptr %9, i32 0, i32 24
  %11 = load ptr, ptr %10, align 8
  %12 = load i64, ptr %6, align 8
  %13 = call ptr @LLVMConstInt(ptr noundef %11, i64 noundef %12, i32 noundef 0)
  %14 = call ptr @llvm_emit_ptradd_inbounds_raw(ptr noundef %7, ptr noundef %8, ptr noundef %13, i64 noundef 1)
  ret ptr %14
}