; Function Attrs: nounwind uwtable
define dso_local ptr @llvm_emit_const_ptradd_inbounds_raw(ptr nocapture noundef readonly %0, ptr noundef %1, i64 noundef %2) local_unnamed_addr #0 {
  %4 = alloca ptr, align 8
  %5 = getelementptr inbounds i8, ptr %0, i64 192
  %6 = load ptr, ptr %5, align 8
  %7 = tail call ptr @LLVMConstInt(ptr noundef %6, i64 noundef %2, i32 noundef 0) #10
  call void @llvm.lifetime.start.p0(i64 8, ptr nonnull %4)
  store ptr %7, ptr %4, align 8
  %8 = tail call i32 @LLVMIsConstant(ptr noundef %7) #10
  %.not.i = icmp eq i32 %8, 0
  br i1 %.not.i, label %11, label %9

9:                                                ; preds = %3
  %10 = tail call i32 @LLVMIsNull(ptr noundef %7) #10
  %.not10.i = icmp eq i32 %10, 0
  br i1 %.not10.i, label %11, label %llvm_emit_ptradd_inbounds_raw.exit

11:                                               ; preds = %9, %3
  %12 = getelementptr inbounds i8, ptr %0, i64 64
  %13 = load ptr, ptr %12, align 8
  %14 = getelementptr inbounds i8, ptr %0, i64 168
  %15 = load ptr, ptr %14, align 8
  %16 = call ptr @LLVMBuildInBoundsGEP2(ptr noundef %13, ptr noundef %15, ptr noundef %1, ptr noundef nonnull %4, i32 noundef 1, ptr noundef nonnull @.str.65) #10
  br label %llvm_emit_ptradd_inbounds_raw.exit

llvm_emit_ptradd_inbounds_raw.exit:               ; preds = %9, %11
  %.0.i = phi ptr [ %16, %11 ], [ %1, %9 ]
  call void @llvm.lifetime.end.p0(i64 8, ptr nonnull %4)
  ret ptr %.0.i
}